target datalayout = "e-m:e-p270:32:32-p271:32:32-p272:64:64-i64:64-i128:128-f80:128-n8:16:32:64-S128"
target triple = "x86_64-pc-linux-gnu"

%"class.pybind11::object" = type { %"class.pybind11::handle" }
%"class.pybind11::handle" = type { ptr }
%"class.pybind11::dict" = type { %"class.pybind11::object" }
%"class.pybind11::tuple" = type { %"class.pybind11::object" }
%"struct.pybind11::detail::void_type" = type { i8 }
%"struct.pybind11::arg_v" = type { %"struct.pybind11::arg.base", %"class.pybind11::object", ptr }
%"struct.pybind11::arg.base" = type <{ ptr, i8 }>
%"struct.pybind11::arg" = type <{ ptr, i8, [7 x i8] }>
%"class.pybind11::detail::unpacking_collector" = type { %"class.pybind11::tuple", %"class.pybind11::dict" }

@.str.251 = private unnamed_addr constant [6 x i8] c"value\00", align 1
@.str.274 = private unnamed_addr constant [4 x i8] c"key\00", align 1

; Function Attrs: mustprogress nounwind uwtable
define linkonce_odr hidden void @_ZN8pybind116objectC2ENS_6handleENS0_8stolen_tE(ptr noundef nonnull align 8 dereferenceable(8) %0, ptr %1) unnamed_addr #0 comdat align 2 {
  %3 = alloca %"class.pybind11::handle", align 8
  %4 = alloca ptr, align 8
  %5 = getelementptr inbounds %"class.pybind11::handle", ptr %3, i32 0, i32 0
  store ptr %1, ptr %5, align 8
  store ptr %0, ptr %4, align 8
  %6 = load ptr, ptr %4, align 8
  call void @llvm.memcpy.p0.p0.i64(ptr align 8 %6, ptr align 8 %3, i64 8, i1 false)
  ret void
}

; Function Attrs: mustprogress uwtable
define linkonce_odr hidden void @_ZN8pybind1117reinterpret_stealINS_6objectEEET_NS_6handleE(ptr dead_on_unwind noalias writable sret(%"class.pybind11::object") align 8 %0, ptr %1) #1 comdat {
  %3 = alloca ptr, align 8
  %4 = alloca %"class.pybind11::handle", align 8
  %5 = alloca %"class.pybind11::handle", align 8
  store ptr %0, ptr %3, align 8
  %6 = getelementptr inbounds %"class.pybind11::handle", ptr %4, i32 0, i32 0
  store ptr %1, ptr %6, align 8
  call void @llvm.memcpy.p0.p0.i64(ptr align 8 %5, ptr align 8 %4, i64 8, i1 false)
  %7 = getelementptr inbounds %"class.pybind11::handle", ptr %5, i32 0, i32 0
  %8 = load ptr, ptr %7, align 8
  call void @_ZN8pybind116objectC2ENS_6handleENS0_8stolen_tE(ptr noundef nonnull align 8 dereferenceable(8) %0, ptr %8)
  ret void
}

; Function Attrs: mustprogress nounwind uwtable
define linkonce_odr hidden void @_ZN8pybind116handleC2Ev(ptr noundef nonnull align 8 dereferenceable(8) %0) unnamed_addr #0 comdat align 2 {
  %2 = alloca ptr, align 8
  store ptr %0, ptr %2, align 8
  %3 = load ptr, ptr %2, align 8
  %4 = getelementptr inbounds %"class.pybind11::handle", ptr %3, i32 0, i32 0
  store ptr null, ptr %4, align 8
  ret void
}

; Function Attrs: mustprogress nounwind uwtable
define linkonce_odr hidden void @_ZN8pybind115tupleD2Ev(ptr noundef nonnull align 8 dereferenceable(8) %0) unnamed_addr #0 comdat align 2 {
  %2 = alloca ptr, align 8
  store ptr %0, ptr %2, align 8
  %3 = load ptr, ptr %2, align 8
  call void @_ZN8pybind116objectD2Ev(ptr noundef nonnull align 8 dereferenceable(8) %3) #16
  ret void
}

; Function Attrs: mustprogress nounwind uwtable
define linkonce_odr hidden void @_ZN8pybind116objectC2EOS0_(ptr noundef nonnull align 8 dereferenceable(8) %0, ptr noundef nonnull align 8 dereferenceable(8) %1) unnamed_addr #0 comdat align 2 {
  %3 = alloca ptr, align 8
  %4 = alloca ptr, align 8
  store ptr %0, ptr %3, align 8
  store ptr %1, ptr %4, align 8
  %5 = load ptr, ptr %3, align 8
  %6 = load ptr, ptr %4, align 8
  call void @llvm.memcpy.p0.p0.i64(ptr align 8 %5, ptr align 8 %6, i64 8, i1 false)
  %7 = load ptr, ptr %4, align 8
  %8 = getelementptr inbounds %"class.pybind11::handle", ptr %7, i32 0, i32 0
  store ptr null, ptr %8, align 8
  ret void
}

; Function Attrs: mustprogress uwtable
define linkonce_odr hidden void @_ZN8pybind115arg_vC2IRA6_KcEEONS_3argEOT_PS2_(ptr noundef nonnull align 8 dereferenceable(32) %0, ptr noundef nonnull align 8 dereferenceable(9) %1, ptr noundef nonnull align 1 dereferenceable(6) %2, ptr noundef %3) unnamed_addr #1 comdat align 2 personality ptr @__gxx_personality_v0 {
  %5 = alloca ptr, align 8
  %6 = alloca ptr, align 8
  %7 = alloca ptr, align 8
  %8 = alloca ptr, align 8
  %9 = alloca %"class.pybind11::handle", align 8
  %10 = alloca %"class.pybind11::handle", align 8
  %11 = alloca ptr, align 8
  %12 = alloca i32, align 4
  store ptr %0, ptr %5, align 8
  store ptr %1, ptr %6, align 8
  store ptr %2, ptr %7, align 8
  store ptr %3, ptr %8, align 8
  %13 = load ptr, ptr %5, align 8
  %14 = load ptr, ptr %6, align 8
  call void @llvm.memcpy.p0.p0.i64(ptr align 8 %13, ptr align 8 %14, i64 16, i1 false)
  %15 = getelementptr inbounds %"struct.pybind11::arg_v", ptr %13, i32 0, i32 1
  %16 = load ptr, ptr %7, align 8
  %17 = getelementptr inbounds [6 x i8], ptr %16, i64 0, i64 0
  call void @llvm.memset.p0.i64(ptr align 8 %10, i8 0, i64 8, i1 false)
  call void @_ZN8pybind116handleC2Ev(ptr noundef nonnull align 8 dereferenceable(8) %10) #16
  %18 = getelementptr inbounds %"class.pybind11::handle", ptr %10, i32 0, i32 0
  %19 = load ptr, ptr %18, align 8
  %20 = call ptr @_ZN8pybind116detail11type_casterIcvE4castEPKcNS_19return_value_policyENS_6handleE(ptr noundef %17, i8 noundef zeroext 0, ptr %19)
  %21 = getelementptr inbounds %"class.pybind11::handle", ptr %9, i32 0, i32 0
  store ptr %20, ptr %21, align 8
  %22 = getelementptr inbounds %"class.pybind11::handle", ptr %9, i32 0, i32 0
  %23 = load ptr, ptr %22, align 8
  call void @_ZN8pybind1117reinterpret_stealINS_6objectEEET_NS_6handleE(ptr dead_on_unwind writable sret(%"class.pybind11::object") align 8 %15, ptr %23)
  %24 = getelementptr inbounds %"struct.pybind11::arg_v", ptr %13, i32 0, i32 2
  %25 = load ptr, ptr %8, align 8
  store ptr %25, ptr %24, align 8
  %26 = invoke ptr @PyErr_Occurred()
          to label %27 unwind label %31

27:                                               ; preds = %4
  %28 = icmp ne ptr %26, null
  br i1 %28, label %29, label %35

29:                                               ; preds = %27
  invoke void @PyErr_Clear()
          to label %30 unwind label %31

30:                                               ; preds = %29
  br label %35

31:                                               ; preds = %29, %4
  %32 = landingpad { ptr, i32 }
          cleanup
  %33 = extractvalue { ptr, i32 } %32, 0
  store ptr %33, ptr %11, align 8
  %34 = extractvalue { ptr, i32 } %32, 1
  store i32 %34, ptr %12, align 4
  call void @_ZN8pybind116objectD2Ev(ptr noundef nonnull align 8 dereferenceable(8) %15) #16
  br label %36

35:                                               ; preds = %30, %27
  ret void

36:                                               ; preds = %31
  %37 = load ptr, ptr %11, align 8
  %38 = load i32, ptr %12, align 4
  %39 = insertvalue { ptr, i32 } poison, ptr %37, 0
  %40 = insertvalue { ptr, i32 } %39, i32 %38, 1
  resume { ptr, i32 } %40
}

; Function Attrs: mustprogress nounwind uwtable
define linkonce_odr hidden void @_ZN8pybind116detail19unpacking_collectorILNS_19return_value_policyE1EED2Ev(ptr noundef nonnull align 8 dereferenceable(16) %0) unnamed_addr #0 comdat align 2 {
  %2 = alloca ptr, align 8
  store ptr %0, ptr %2, align 8
  %3 = load ptr, ptr %2, align 8
  %4 = getelementptr inbounds %"class.pybind11::detail::unpacking_collector", ptr %3, i32 0, i32 1
  call void @_ZN8pybind114dictD2Ev(ptr noundef nonnull align 8 dereferenceable(8) %4) #16
  %5 = getelementptr inbounds %"class.pybind11::detail::unpacking_collector", ptr %3, i32 0, i32 0
  call void @_ZN8pybind115tupleD2Ev(ptr noundef nonnull align 8 dereferenceable(8) %5) #16
  ret void
}

; Function Attrs: mustprogress nounwind uwtable
define linkonce_odr hidden void @_ZN8pybind114dictD2Ev(ptr noundef nonnull align 8 dereferenceable(8) %0) unnamed_addr #0 comdat align 2 {
  %2 = alloca ptr, align 8
  store ptr %0, ptr %2, align 8
  %3 = load ptr, ptr %2, align 8
  call void @_ZN8pybind116objectD2Ev(ptr noundef nonnull align 8 dereferenceable(8) %3) #16
  ret void
}

; Function Attrs: mustprogress nounwind uwtable
define linkonce_odr hidden void @_ZN8pybind114dictC2EOS0_(ptr noundef nonnull align 8 dereferenceable(8) %0, ptr noundef nonnull align 8 dereferenceable(8) %1) unnamed_addr #0 comdat align 2 {
  %3 = alloca ptr, align 8
  %4 = alloca ptr, align 8
  store ptr %0, ptr %3, align 8
  store ptr %1, ptr %4, align 8
  %5 = load ptr, ptr %3, align 8
  %6 = load ptr, ptr %4, align 8
  call void @_ZN8pybind116objectC2EOS0_(ptr noundef nonnull align 8 dereferenceable(8) %5, ptr noundef nonnull align 8 dereferenceable(8) %6) #16
  ret void
}

; Function Attrs: mustprogress nounwind uwtable
define linkonce_odr hidden void @_ZNO8pybind116detail19unpacking_collectorILNS_19return_value_policyE1EE6kwargsEv(ptr dead_on_unwind noalias writable sret(%"class.pybind11::dict") align 8 %0, ptr noundef nonnull align 8 dereferenceable(16) %1) #0 comdat align 2 {
  %3 = alloca ptr, align 8
  %4 = alloca ptr, align 8
  store ptr %0, ptr %3, align 8
  store ptr %1, ptr %4, align 8
  %5 = load ptr, ptr %4, align 8
  %6 = getelementptr inbounds %"class.pybind11::detail::unpacking_collector", ptr %5, i32 0, i32 1
  call void @_ZN8pybind114dictC2EOS0_(ptr noundef nonnull align 8 dereferenceable(8) %0, ptr noundef nonnull align 8 dereferenceable(8) %6) #16
  ret void
}

; Function Attrs: mustprogress uwtable
define linkonce_odr hidden void @_ZN8pybind115arg_vC2IRA6_KcEERKNS_3argEOT_PS2_(ptr noundef nonnull align 8 dereferenceable(32) %0, ptr noundef nonnull align 8 dereferenceable(9) %1, ptr noundef nonnull align 1 dereferenceable(6) %2, ptr noundef %3) unnamed_addr #1 comdat align 2 {
  %5 = alloca ptr, align 8
  %6 = alloca ptr, align 8
  %7 = alloca ptr, align 8
  %8 = alloca ptr, align 8
  %9 = alloca %"struct.pybind11::arg", align 8
  store ptr %0, ptr %5, align 8
  store ptr %1, ptr %6, align 8
  store ptr %2, ptr %7, align 8
  store ptr %3, ptr %8, align 8
  %10 = load ptr, ptr %5, align 8
  %11 = load ptr, ptr %6, align 8
  call void @llvm.memcpy.p0.p0.i64(ptr align 8 %9, ptr align 8 %11, i64 9, i1 false)
  %12 = load ptr, ptr %7, align 8
  %13 = load ptr, ptr %8, align 8
  call void @_ZN8pybind115arg_vC2IRA6_KcEEONS_3argEOT_PS2_(ptr noundef nonnull align 8 dereferenceable(32) %10, ptr noundef nonnull align 8 dereferenceable(9) %9, ptr noundef nonnull align 1 dereferenceable(6) %12, ptr noundef %13)
  ret void
}

; Function Attrs: mustprogress nounwind uwtable
define linkonce_odr hidden void @_ZN8pybind113argC2EPKc(ptr noundef nonnull align 8 dereferenceable(9) %0, ptr noundef %1) unnamed_addr #0 comdat align 2 {
  %3 = alloca ptr, align 8
  %4 = alloca ptr, align 8
  store ptr %0, ptr %3, align 8
  store ptr %1, ptr %4, align 8
  %5 = load ptr, ptr %3, align 8
  %6 = getelementptr inbounds %"struct.pybind11::arg", ptr %5, i32 0, i32 0
  %7 = load ptr, ptr %4, align 8
  store ptr %7, ptr %6, align 8
  %8 = getelementptr inbounds %"struct.pybind11::arg", ptr %5, i32 0, i32 1
  %9 = load i8, ptr %8, align 8
  %10 = and i8 %9, -2
  %11 = or i8 %10, 0
  store i8 %11, ptr %8, align 8
  %12 = getelementptr inbounds %"struct.pybind11::arg", ptr %5, i32 0, i32 1
  %13 = load i8, ptr %12, align 8
  %14 = and i8 %13, -3
  %15 = or i8 %14, 2
  store i8 %15, ptr %12, align 8
  ret void
}

; Function Attrs: mustprogress uwtable
define linkonce_odr hidden void @_ZN8pybind114dictC2IJNS_5arg_vEEvNS_6detail19unpacking_collectorILNS_19return_value_policyE1EEEEEDpOT_(ptr noundef nonnull align 8 dereferenceable(8) %0, ptr noundef nonnull align 8 dereferenceable(32) %1) unnamed_addr #1 comdat align 2 personality ptr @__gxx_personality_v0 {
  %3 = alloca ptr, align 8
  %4 = alloca ptr, align 8
  %5 = alloca %"class.pybind11::dict", align 8
  %6 = alloca %"class.pybind11::detail::unpacking_collector", align 8
  %7 = alloca ptr, align 8
  %8 = alloca i32, align 4
  store ptr %0, ptr %3, align 8
  store ptr %1, ptr %4, align 8
  %9 = load ptr, ptr %3, align 8
  %10 = load ptr, ptr %4, align 8
  call void @_ZN8pybind116detail19unpacking_collectorILNS_19return_value_policyE1EEC2IJNS_5arg_vEEEEDpOT_(ptr noundef nonnull align 8 dereferenceable(16) %6, ptr noundef nonnull align 8 dereferenceable(32) %10)
  invoke void @_ZNO8pybind116detail19unpacking_collectorILNS_19return_value_policyE1EE6kwargsEv(ptr dead_on_unwind writable sret(%"class.pybind11::dict") align 8 %5, ptr noundef nonnull align 8 dereferenceable(16) %6)
          to label %11 unwind label %12

11:                                               ; preds = %2
  call void @_ZN8pybind114dictC2EOS0_(ptr noundef nonnull align 8 dereferenceable(8) %9, ptr noundef nonnull align 8 dereferenceable(8) %5) #16
  call void @_ZN8pybind114dictD2Ev(ptr noundef nonnull align 8 dereferenceable(8) %5) #16
  call void @_ZN8pybind116detail19unpacking_collectorILNS_19return_value_policyE1EED2Ev(ptr noundef nonnull align 8 dereferenceable(16) %6) #16
  ret void

12:                                               ; preds = %2
  %13 = landingpad { ptr, i32 }
          cleanup
  %14 = extractvalue { ptr, i32 } %13, 0
  store ptr %14, ptr %7, align 8
  %15 = extractvalue { ptr, i32 } %13, 1
  store i32 %15, ptr %8, align 4
  call void @_ZN8pybind116detail19unpacking_collectorILNS_19return_value_policyE1EED2Ev(ptr noundef nonnull align 8 dereferenceable(16) %6) #16
  br label %16

16:                                               ; preds = %12
  %17 = load ptr, ptr %7, align 8
  %18 = load i32, ptr %8, align 4
  %19 = insertvalue { ptr, i32 } poison, ptr %17, 0
  %20 = insertvalue { ptr, i32 } %19, i32 %18, 1
  resume { ptr, i32 } %20
}

; Function Attrs: mustprogress uwtable
define linkonce_odr hidden void @_ZNK8pybind113argaSIRA6_KcEENS_5arg_vEOT_(ptr dead_on_unwind noalias writable sret(%"struct.pybind11::arg_v") align 8 %0, ptr noundef nonnull align 8 dereferenceable(9) %1, ptr noundef nonnull align 1 dereferenceable(6) %2) #1 comdat align 2 {
  %4 = alloca ptr, align 8
  %5 = alloca ptr, align 8
  %6 = alloca ptr, align 8
  store ptr %0, ptr %4, align 8
  store ptr %1, ptr %5, align 8
  store ptr %2, ptr %6, align 8
  %7 = load ptr, ptr %5, align 8
  %8 = load ptr, ptr %6, align 8
  call void @_ZN8pybind115arg_vC2IRA6_KcEERKNS_3argEOT_PS2_(ptr noundef nonnull align 8 dereferenceable(32) %0, ptr noundef nonnull align 8 dereferenceable(9) %7, ptr noundef nonnull align 1 dereferenceable(6) %8, ptr noundef null)
  ret void
}

; Function Attrs: mustprogress uwtable
define linkonce_odr hidden { ptr, i64 } @_ZN8pybind118literalsli2_aEPKcm(ptr noundef %0, i64 noundef %1) #1 comdat {
  %3 = alloca %"struct.pybind11::arg", align 8
  %4 = alloca ptr, align 8
  %5 = alloca i64, align 8
  store ptr %0, ptr %4, align 8
  store i64 %1, ptr %5, align 8
  %6 = load ptr, ptr %4, align 8
  call void @_ZN8pybind113argC2EPKc(ptr noundef nonnull align 8 dereferenceable(9) %3, ptr noundef %6)
  %7 = load { ptr, i64 }, ptr %3, align 8
  ret { ptr, i64 } %7
}

; Function Attrs: mustprogress uwtable
define internal void @"_ZZ22test_submodule_pytypesRN8pybind117module_EENK4$_28clEv"(ptr dead_on_unwind noalias writable sret(%"class.pybind11::dict") align 8 %0, ptr noundef nonnull align 1 dereferenceable(1) %1) #1 align 2 personality ptr @__gxx_personality_v0 {
  %3 = alloca ptr, align 8
  %4 = alloca ptr, align 8
  %5 = alloca %"struct.pybind11::arg_v", align 8
  %6 = alloca %"struct.pybind11::arg", align 8
  %7 = alloca ptr, align 8
  %8 = alloca i32, align 4
  store ptr %0, ptr %3, align 8
  store ptr %1, ptr %4, align 8
  %9 = call { ptr, i64 } @_ZN8pybind118literalsli2_aEPKcm(ptr noundef @.str.274, i64 noundef 3)
  %10 = getelementptr inbounds { ptr, i64 }, ptr %6, i32 0, i32 0
  %11 = extractvalue { ptr, i64 } %9, 0
  store ptr %11, ptr %10, align 8
  %12 = getelementptr inbounds { ptr, i64 }, ptr %6, i32 0, i32 1
  %13 = extractvalue { ptr, i64 } %9, 1
  store i64 %13, ptr %12, align 8
  call void @_ZNK8pybind113argaSIRA6_KcEENS_5arg_vEOT_(ptr dead_on_unwind writable sret(%"struct.pybind11::arg_v") align 8 %5, ptr noundef nonnull align 8 dereferenceable(9) %6, ptr noundef nonnull align 1 dereferenceable(6) @.str.251)
  invoke void @_ZN8pybind114dictC2IJNS_5arg_vEEvNS_6detail19unpacking_collectorILNS_19return_value_policyE1EEEEEDpOT_(ptr noundef nonnull align 8 dereferenceable(8) %0, ptr noundef nonnull align 8 dereferenceable(32) %5)
          to label %14 unwind label %15

14:                                               ; preds = %2
  call void @_ZN8pybind115arg_vD2Ev(ptr noundef nonnull align 8 dereferenceable(32) %5) #16
  ret void

15:                                               ; preds = %2
  %16 = landingpad { ptr, i32 }
          cleanup
  %17 = extractvalue { ptr, i32 } %16, 0
  store ptr %17, ptr %7, align 8
  %18 = extractvalue { ptr, i32 } %16, 1
  store i32 %18, ptr %8, align 4
  call void @_ZN8pybind115arg_vD2Ev(ptr noundef nonnull align 8 dereferenceable(32) %5) #16
  br label %19

19:                                               ; preds = %15
  %20 = load ptr, ptr %7, align 8
  %21 = load i32, ptr %8, align 4
  %22 = insertvalue { ptr, i32 } poison, ptr %20, 0
  %23 = insertvalue { ptr, i32 } %22, i32 %21, 1
  resume { ptr, i32 } %23
}

; Function Attrs: mustprogress uwtable
define internal void @"_ZNO8pybind116detail15argument_loaderIJEE9call_implINS_4dictERZ22test_submodule_pytypesRNS_7module_EE4$_28TpTnmJENS0_9void_typeEEET_OT0_St16integer_sequenceImJXspT1_EEEOT2_"(ptr dead_on_unwind noalias writable sret(%"class.pybind11::dict") align 8 %0, ptr noundef nonnull align 1 dereferenceable(1) %1, ptr noundef nonnull align 1 dereferenceable(1) %2, ptr noundef nonnull align 1 dereferenceable(1) %3) #1 align 2 {
  %5 = alloca ptr, align 8
  %6 = alloca ptr, align 8
  %7 = alloca ptr, align 8
  %8 = alloca ptr, align 8
  store ptr %0, ptr %5, align 8
  store ptr %1, ptr %6, align 8
  store ptr %2, ptr %7, align 8
  store ptr %3, ptr %8, align 8
  %9 = load ptr, ptr %7, align 8
  call void @"_ZZ22test_submodule_pytypesRN8pybind117module_EENK4$_28clEv"(ptr dead_on_unwind writable sret(%"class.pybind11::dict") align 8 %0, ptr noundef nonnull align 1 dereferenceable(1) %9)
  ret void
}

; Function Attrs: mustprogress uwtable
define internal void @"_ZNO8pybind116detail15argument_loaderIJEE4callINS_4dictENS0_9void_typeERZ22test_submodule_pytypesRNS_7module_EE4$_28EENSt9enable_ifIXntsr3std7is_voidIT_EE5valueESB_E4typeEOT1_"(ptr dead_on_unwind noalias writable sret(%"class.pybind11::dict") align 8 %0, ptr noundef nonnull align 1 dereferenceable(1) %1, ptr noundef nonnull align 1 dereferenceable(1) %2) #1 align 2 {
  %4 = alloca ptr, align 8
  %5 = alloca ptr, align 8
  %6 = alloca ptr, align 8
  %7 = alloca %"struct.pybind11::detail::void_type", align 1
  store ptr %0, ptr %4, align 8
  store ptr %1, ptr %5, align 8
  store ptr %2, ptr %6, align 8
  %8 = load ptr, ptr %5, align 8
  %9 = load ptr, ptr %6, align 8
  call void @"_ZNO8pybind116detail15argument_loaderIJEE9call_implINS_4dictERZ22test_submodule_pytypesRNS_7module_EE4$_28TpTnmJENS0_9void_typeEEET_OT0_St16integer_sequenceImJXspT1_EEEOT2_"(ptr dead_on_unwind writable sret(%"class.pybind11::dict") align 8 %0, ptr noundef nonnull align 1 dereferenceable(1) %8, ptr noundef nonnull align 1 dereferenceable(1) %9, ptr noundef nonnull align 1 dereferenceable(1) %7)
  ret void
}