; Function Attrs: mustprogress uwtable
define internal fastcc void @"_ZNO8pybind116detail15argument_loaderIJEE4callINS_4dictENS0_9void_typeERZ22test_submodule_pytypesRNS_7module_EE4$_28EENSt9enable_ifIXntsr3std7is_voidIT_EE5valueESB_E4typeEOT1_"(ptr dead_on_unwind noalias nocapture writable writeonly align 8 %0) unnamed_addr #1 align 2 personality ptr @__gxx_personality_v0 {
  %2 = alloca %"class.pybind11::detail::unpacking_collector", align 8
  %3 = alloca %"struct.pybind11::arg_v", align 8
  tail call void @llvm.experimental.noalias.scope.decl(metadata !2623)
  tail call void @llvm.experimental.noalias.scope.decl(metadata !2626)
  call void @llvm.lifetime.start.p0(i64 32, ptr nonnull %3), !noalias !2623
  tail call void @llvm.experimental.noalias.scope.decl(metadata !2629)
  store ptr @.str.274, ptr %3, align 8, !noalias !2632
  %.sroa.2.0..sroa_idx.i.i = getelementptr inbounds i8, ptr %3, i64 8
  store i8 2, ptr %.sroa.2.0..sroa_idx.i.i, align 8, !noalias !2632
  %4 = getelementptr inbounds i8, ptr %3, i64 16
  %5 = tail call ptr @_ZN8pybind116detail11type_casterIcvE4castEPKcNS_19return_value_policyENS_6handleE(ptr noundef nonnull @.str.251, i8 noundef zeroext 0, ptr null), !noalias !2633
  store ptr %5, ptr %4, align 8, !alias.scope !2634, !noalias !2632
  %6 = getelementptr inbounds i8, ptr %3, i64 24
  store ptr null, ptr %6, align 8, !alias.scope !2629, !noalias !2632
  %7 = invoke ptr @PyErr_Occurred()
          to label %8 unwind label %10, !noalias !2633

8:                                                ; preds = %1
  %.not.i.i.i.i.i = icmp eq ptr %7, null
  br i1 %.not.i.i.i.i.i, label %_ZNK8pybind113argaSIRA6_KcEENS_5arg_vEOT_.exit.i.i, label %9

9:                                                ; preds = %8
  invoke void @PyErr_Clear()
          to label %_ZNK8pybind113argaSIRA6_KcEENS_5arg_vEOT_.exit.i.i unwind label %10, !noalias !2633

common.resume.i.i:                                ; preds = %31, %10
  %common.resume.op.i.i = phi { ptr, i32 } [ %11, %10 ], [ %32, %31 ]
  resume { ptr, i32 } %common.resume.op.i.i

10:                                               ; preds = %9, %1
  %11 = landingpad { ptr, i32 }
          cleanup
  call void @_ZN8pybind116objectD2Ev(ptr noundef nonnull align 8 dereferenceable(8) %4) #25, !noalias !2632
  br label %common.resume.i.i

_ZNK8pybind113argaSIRA6_KcEENS_5arg_vEOT_.exit.i.i: ; preds = %9, %8
  call void @llvm.lifetime.start.p0(i64 16, ptr nonnull %2), !noalias !2632
  invoke void @_ZN8pybind116detail19unpacking_collectorILNS_19return_value_policyE1EEC2IJNS_5arg_vEEEEDpOT_(ptr noundef nonnull align 8 dereferenceable(16) %2, ptr noundef nonnull align 8 dereferenceable(32) %3)
          to label %.noexc.i.i unwind label %31, !noalias !2632

.noexc.i.i:                                       ; preds = %_ZNK8pybind113argaSIRA6_KcEENS_5arg_vEOT_.exit.i.i
  %12 = getelementptr inbounds i8, ptr %2, i64 8
  %13 = load i64, ptr %12, align 8, !noalias !2637
  store ptr null, ptr %12, align 8, !noalias !2637
  store i64 %13, ptr %0, align 8, !alias.scope !2632
  %14 = load ptr, ptr %2, align 8, !noalias !2632
  %.not.i.i.i.i1.i.i.i.i = icmp eq ptr %14, null
  br i1 %.not.i.i.i.i1.i.i.i.i, label %22, label %15

15:                                               ; preds = %.noexc.i.i
  %16 = load i64, ptr %14, align 8, !noalias !2632
  %17 = add nsw i64 %16, -1
  store i64 %17, ptr %14, align 8, !noalias !2632
  %.not.i.i.i.i.i2.i.i.i.i = icmp eq i64 %17, 0
  br i1 %.not.i.i.i.i.i2.i.i.i.i, label %18, label %22

18:                                               ; preds = %15
  invoke void @_Py_Dealloc(ptr noundef nonnull %14)
          to label %22 unwind label %19, !noalias !2632

19:                                               ; preds = %18
  %20 = landingpad { ptr, i32 }
          catch ptr null
  %21 = extractvalue { ptr, i32 } %20, 0
  call void @__clang_call_terminate(ptr %21) #26
  unreachable

22:                                               ; preds = %18, %15, %.noexc.i.i
  call void @llvm.lifetime.end.p0(i64 16, ptr nonnull %2), !noalias !2632
  %23 = load ptr, ptr %4, align 8, !noalias !2632
  %.not.i.i.i.i.i.i = icmp eq ptr %23, null
  br i1 %.not.i.i.i.i.i.i, label %"_ZNO8pybind116detail15argument_loaderIJEE9call_implINS_4dictERZ22test_submodule_pytypesRNS_7module_EE4$_28TpTnmJENS0_9void_typeEEET_OT0_St16integer_sequenceImJXspT1_EEEOT2_.exit", label %24

24:                                               ; preds = %22
  %25 = load i64, ptr %23, align 8, !noalias !2632
  %26 = add nsw i64 %25, -1
  store i64 %26, ptr %23, align 8, !noalias !2632
  %.not.i.i.i.i.i.i.i = icmp eq i64 %26, 0
  br i1 %.not.i.i.i.i.i.i.i, label %27, label %"_ZNO8pybind116detail15argument_loaderIJEE9call_implINS_4dictERZ22test_submodule_pytypesRNS_7module_EE4$_28TpTnmJENS0_9void_typeEEET_OT0_St16integer_sequenceImJXspT1_EEEOT2_.exit"

27:                                               ; preds = %24
  invoke void @_Py_Dealloc(ptr noundef nonnull %23)
          to label %"_ZNO8pybind116detail15argument_loaderIJEE9call_implINS_4dictERZ22test_submodule_pytypesRNS_7module_EE4$_28TpTnmJENS0_9void_typeEEET_OT0_St16integer_sequenceImJXspT1_EEEOT2_.exit" unwind label %28, !noalias !2632

28:                                               ; preds = %27
  %29 = landingpad { ptr, i32 }
          catch ptr null
  %30 = extractvalue { ptr, i32 } %29, 0
  call void @__clang_call_terminate(ptr %30) #26
  unreachable

31:                                               ; preds = %_ZNK8pybind113argaSIRA6_KcEENS_5arg_vEOT_.exit.i.i
  %32 = landingpad { ptr, i32 }
          cleanup
  call void @_ZN8pybind115arg_vD2Ev(ptr noundef nonnull align 8 dereferenceable(32) %3) #25, !noalias !2632
  br label %common.resume.i.i

"_ZNO8pybind116detail15argument_loaderIJEE9call_implINS_4dictERZ22test_submodule_pytypesRNS_7module_EE4$_28TpTnmJENS0_9void_typeEEET_OT0_St16integer_sequenceImJXspT1_EEEOT2_.exit": ; preds = %22, %24, %27
  call void @llvm.lifetime.end.p0(i64 32, ptr nonnull %3), !noalias !2623
  ret void
}